target datalayout = "e-m:e-p270:32:32-p271:32:32-p272:64:64-i64:64-i128:128-f80:128-n8:16:32:64-S128"
target triple = "x86_64-pc-linux-gnu"

%struct._GdkEventScroll = type { i32, ptr, i8, i32, double, double, i32, i32, ptr, double, double, double, double, i8 }

; Function Attrs: nounwind uwtable
define i32 @dt_gui_get_scroll_deltas(ptr noundef %0, ptr noundef %1, ptr noundef %2) #0 {
  %4 = alloca i32, align 4
  %5 = alloca ptr, align 8
  %6 = alloca ptr, align 8
  %7 = alloca ptr, align 8
  %8 = alloca i32, align 4
  store ptr %0, ptr %5, align 8, !tbaa !15
  store ptr %1, ptr %6, align 8, !tbaa !65
  store ptr %2, ptr %7, align 8, !tbaa !65
  %9 = load ptr, ptr %5, align 8, !tbaa !15
  %10 = call i32 @gdk_event_get_pointer_emulated(ptr noundef %9)
  %11 = icmp ne i32 %10, 0
  br i1 %11, label %12, label %13

12:                                               ; preds = %3
  store i32 0, ptr %4, align 4
  br label %98

13:                                               ; preds = %3
  call void @llvm.lifetime.start.p0(i64 4, ptr %8) #15
  store i32 0, ptr %8, align 4, !tbaa !17
  %14 = load ptr, ptr %5, align 8, !tbaa !15
  %15 = getelementptr inbounds nuw %struct._GdkEventScroll, ptr %14, i32 0, i32 7
  %16 = load i32, ptr %15, align 4, !tbaa !67
  switch i32 %16, label %95 [
    i32 2, label %17
    i32 3, label %28
    i32 0, label %39
    i32 1, label %50
    i32 4, label %61
  ]

17:                                               ; preds = %13
  %18 = load ptr, ptr %6, align 8, !tbaa !65
  %19 = icmp ne ptr %18, null
  br i1 %19, label %20, label %27

20:                                               ; preds = %17
  %21 = load ptr, ptr %6, align 8, !tbaa !65
  store double -1.000000e+00, ptr %21, align 8, !tbaa !68
  %22 = load ptr, ptr %7, align 8, !tbaa !65
  %23 = icmp ne ptr %22, null
  br i1 %23, label %24, label %26

24:                                               ; preds = %20
  %25 = load ptr, ptr %7, align 8, !tbaa !65
  store double 0.000000e+00, ptr %25, align 8, !tbaa !68
  br label %26

26:                                               ; preds = %24, %20
  store i32 1, ptr %8, align 4, !tbaa !17
  br label %27

27:                                               ; preds = %26, %17
  br label %96

28:                                               ; preds = %13
  %29 = load ptr, ptr %6, align 8, !tbaa !65
  %30 = icmp ne ptr %29, null
  br i1 %30, label %31, label %38

31:                                               ; preds = %28
  %32 = load ptr, ptr %6, align 8, !tbaa !65
  store double 1.000000e+00, ptr %32, align 8, !tbaa !68
  %33 = load ptr, ptr %7, align 8, !tbaa !65
  %34 = icmp ne ptr %33, null
  br i1 %34, label %35, label %37

35:                                               ; preds = %31
  %36 = load ptr, ptr %7, align 8, !tbaa !65
  store double 0.000000e+00, ptr %36, align 8, !tbaa !68
  br label %37

37:                                               ; preds = %35, %31
  store i32 1, ptr %8, align 4, !tbaa !17
  br label %38

38:                                               ; preds = %37, %28
  br label %96

39:                                               ; preds = %13
  %40 = load ptr, ptr %7, align 8, !tbaa !65
  %41 = icmp ne ptr %40, null
  br i1 %41, label %42, label %49

42:                                               ; preds = %39
  %43 = load ptr, ptr %6, align 8, !tbaa !65
  %44 = icmp ne ptr %43, null
  br i1 %44, label %45, label %47

45:                                               ; preds = %42
  %46 = load ptr, ptr %6, align 8, !tbaa !65
  store double 0.000000e+00, ptr %46, align 8, !tbaa !68
  br label %47

47:                                               ; preds = %45, %42
  %48 = load ptr, ptr %7, align 8, !tbaa !65
  store double -1.000000e+00, ptr %48, align 8, !tbaa !68
  store i32 1, ptr %8, align 4, !tbaa !17
  br label %49

49:                                               ; preds = %47, %39
  br label %96

50:                                               ; preds = %13
  %51 = load ptr, ptr %7, align 8, !tbaa !65
  %52 = icmp ne ptr %51, null
  br i1 %52, label %53, label %60

53:                                               ; preds = %50
  %54 = load ptr, ptr %6, align 8, !tbaa !65
  %55 = icmp ne ptr %54, null
  br i1 %55, label %56, label %58

56:                                               ; preds = %53
  %57 = load ptr, ptr %6, align 8, !tbaa !65
  store double 0.000000e+00, ptr %57, align 8, !tbaa !68
  br label %58

58:                                               ; preds = %56, %53
  %59 = load ptr, ptr %7, align 8, !tbaa !65
  store double 1.000000e+00, ptr %59, align 8, !tbaa !68
  store i32 1, ptr %8, align 4, !tbaa !17
  br label %60

60:                                               ; preds = %58, %50
  br label %96

61:                                               ; preds = %13
  %62 = load ptr, ptr %6, align 8, !tbaa !65
  %63 = icmp ne ptr %62, null
  br i1 %63, label %64, label %69

64:                                               ; preds = %61
  %65 = load ptr, ptr %5, align 8, !tbaa !15
  %66 = getelementptr inbounds nuw %struct._GdkEventScroll, ptr %65, i32 0, i32 11
  %67 = load double, ptr %66, align 8, !tbaa !69
  %68 = fcmp reassoc nsz arcp contract afn une double %67, 0.000000e+00
  br i1 %68, label %77, label %69

69:                                               ; preds = %64, %61
  %70 = load ptr, ptr %7, align 8, !tbaa !65
  %71 = icmp ne ptr %70, null
  br i1 %71, label %72, label %94

72:                                               ; preds = %69
  %73 = load ptr, ptr %5, align 8, !tbaa !15
  %74 = getelementptr inbounds nuw %struct._GdkEventScroll, ptr %73, i32 0, i32 12
  %75 = load double, ptr %74, align 8, !tbaa !70
  %76 = fcmp reassoc nsz arcp contract afn une double %75, 0.000000e+00
  br i1 %76, label %77, label %94

77:                                               ; preds = %72, %64
  %78 = load ptr, ptr %6, align 8, !tbaa !65
  %79 = icmp ne ptr %78, null
  br i1 %79, label %80, label %85

80:                                               ; preds = %77
  %81 = load ptr, ptr %5, align 8, !tbaa !15
  %82 = getelementptr inbounds nuw %struct._GdkEventScroll, ptr %81, i32 0, i32 11
  %83 = load double, ptr %82, align 8, !tbaa !69
  %84 = load ptr, ptr %6, align 8, !tbaa !65
  store double %83, ptr %84, align 8, !tbaa !68
  br label %85

85:                                               ; preds = %80, %77
  %86 = load ptr, ptr %7, align 8, !tbaa !65
  %87 = icmp ne ptr %86, null
  br i1 %87, label %88, label %93

88:                                               ; preds = %85
  %89 = load ptr, ptr %5, align 8, !tbaa !15
  %90 = getelementptr inbounds nuw %struct._GdkEventScroll, ptr %89, i32 0, i32 12
  %91 = load double, ptr %90, align 8, !tbaa !70
  %92 = load ptr, ptr %7, align 8, !tbaa !65
  store double %91, ptr %92, align 8, !tbaa !68
  br label %93

93:                                               ; preds = %88, %85
  store i32 1, ptr %8, align 4, !tbaa !17
  br label %94

94:                                               ; preds = %93, %72, %69
  br label %96

95:                                               ; preds = %13
  br label %96

96:                                               ; preds = %95, %94, %60, %49, %38, %27
  %97 = load i32, ptr %8, align 4, !tbaa !17
  store i32 %97, ptr %4, align 4
  call void @llvm.lifetime.end.p0(i64 4, ptr %8) #15
  br label %98

98:                                               ; preds = %96, %12
  %99 = load i32, ptr %4, align 4
  ret i32 %99
}