; Function Attrs: nounwind uwtable
define range(i32 0, 2) i32 @dt_gui_get_scroll_deltas(ptr noundef %0, ptr noundef writeonly %1, ptr noundef writeonly %2) local_unnamed_addr #0 {
  %4 = tail call i32 @gdk_event_get_pointer_emulated(ptr noundef %0) #18
  %.not = icmp eq i32 %4, 0
  br i1 %.not, label %5, label %34

5:                                                ; preds = %3
  %6 = getelementptr inbounds nuw i8, ptr %0, i64 44
  %7 = load i32, ptr %6, align 4, !tbaa !58
  switch i32 %7, label %34 [
    i32 2, label %8
    i32 3, label %10
    i32 0, label %12
    i32 1, label %15
    i32 4, label %18
  ]

8:                                                ; preds = %5
  %.not45 = icmp eq ptr %1, null
  br i1 %.not45, label %34, label %9

9:                                                ; preds = %8
  store double -1.000000e+00, ptr %1, align 8, !tbaa !59
  %.not46 = icmp eq ptr %2, null
  br i1 %.not46, label %34, label %.sink.split

10:                                               ; preds = %5
  %.not43 = icmp eq ptr %1, null
  br i1 %.not43, label %34, label %11

11:                                               ; preds = %10
  store double 1.000000e+00, ptr %1, align 8, !tbaa !59
  %.not44 = icmp eq ptr %2, null
  br i1 %.not44, label %34, label %.sink.split

12:                                               ; preds = %5
  %.not41 = icmp eq ptr %2, null
  br i1 %.not41, label %34, label %13

13:                                               ; preds = %12
  %.not42 = icmp eq ptr %1, null
  br i1 %.not42, label %.sink.split, label %14

14:                                               ; preds = %13
  store double 0.000000e+00, ptr %1, align 8, !tbaa !59
  br label %.sink.split

15:                                               ; preds = %5
  %.not39 = icmp eq ptr %2, null
  br i1 %.not39, label %34, label %16

16:                                               ; preds = %15
  %.not40 = icmp eq ptr %1, null
  br i1 %.not40, label %.sink.split, label %17

17:                                               ; preds = %16
  store double 0.000000e+00, ptr %1, align 8, !tbaa !59
  br label %.sink.split

18:                                               ; preds = %5
  %.not36 = icmp eq ptr %1, null
  br i1 %.not36, label %23, label %19

19:                                               ; preds = %18
  %20 = getelementptr inbounds nuw i8, ptr %0, i64 72
  %21 = load double, ptr %20, align 8, !tbaa !60
  %22 = fcmp reassoc nsz arcp contract afn une double %21, 0.000000e+00
  br i1 %22, label %31, label %23

23:                                               ; preds = %19, %18
  %.not37 = icmp eq ptr %2, null
  br i1 %.not37, label %34, label %24

24:                                               ; preds = %23
  %25 = getelementptr inbounds nuw i8, ptr %0, i64 80
  %26 = load double, ptr %25, align 8, !tbaa !61
  %27 = fcmp reassoc nsz arcp contract afn une double %26, 0.000000e+00
  br i1 %27, label %28, label %34

28:                                               ; preds = %24
  br i1 %.not36, label %.thread47, label %.thread49

.thread49:                                        ; preds = %28
  %29 = getelementptr inbounds nuw i8, ptr %0, i64 72
  %30 = load double, ptr %29, align 8, !tbaa !60
  store double %30, ptr %1, align 8, !tbaa !59
  br label %.thread47

31:                                               ; preds = %19
  store double %21, ptr %1, align 8, !tbaa !59
  %.not38 = icmp eq ptr %2, null
  br i1 %.not38, label %34, label %.thread47

.thread47:                                        ; preds = %28, %.thread49, %31
  %32 = getelementptr inbounds nuw i8, ptr %0, i64 80
  %33 = load double, ptr %32, align 8, !tbaa !61
  br label %.sink.split

.sink.split:                                      ; preds = %16, %17, %13, %14, %11, %9, %.thread47
  %.sink = phi double [ %33, %.thread47 ], [ 0.000000e+00, %9 ], [ 0.000000e+00, %11 ], [ -1.000000e+00, %14 ], [ -1.000000e+00, %13 ], [ 1.000000e+00, %17 ], [ 1.000000e+00, %16 ]
  store double %.sink, ptr %2, align 8, !tbaa !59
  br label %34

34:                                               ; preds = %.sink.split, %8, %10, %12, %15, %24, %23, %5, %9, %11, %31, %3
  %.029 = phi i32 [ 0, %3 ], [ 0, %5 ], [ 0, %24 ], [ 0, %23 ], [ 0, %15 ], [ 0, %12 ], [ 0, %10 ], [ 0, %8 ], [ 1, %9 ], [ 1, %11 ], [ 1, %31 ], [ 1, %.sink.split ]
  ret i32 %.029
}